target datalayout = "e-m:e-p270:32:32-p271:32:32-p272:64:64-i64:64-i128:128-f80:128-n8:16:32:64-S128"
target triple = "x86_64-pc-linux-gnu"

%struct.strbuf = type { i64, i64, ptr }

@strbuf_slopbuf = external global [0 x i8], align 1
@.str.122 = private unnamed_addr constant [11 x i8] c"./strbuf.h\00", align 1
@.str.123 = private unnamed_addr constant [30 x i8] c"strbuf_setlen() beyond buffer\00", align 1
@.str.148 = private unnamed_addr constant [8 x i8] c"Author:\00", align 1
@__const.stgit_patch_to_mail.sb = private unnamed_addr constant %struct.strbuf { i64 0, i64 0, ptr @strbuf_slopbuf }, align 8
@.str.167 = private unnamed_addr constant [9 x i8] c"From:%s\0A\00", align 1
@.str.168 = private unnamed_addr constant [5 x i8] c"From\00", align 1
@.str.169 = private unnamed_addr constant [5 x i8] c"Date\00", align 1
@.str.170 = private unnamed_addr constant [4 x i8] c"%s\0A\00", align 1
@.str.171 = private unnamed_addr constant [13 x i8] c"Subject: %s\0A\00", align 1
@.str.172 = private unnamed_addr constant [5 x i8] c"\0A%s\0A\00", align 1
@sane_ctype = external constant [256 x i8], align 16

; Function Attrs: inlinehint nounwind uwtable
define internal void @strbuf_setlen(ptr noundef %0, i64 noundef %1) #5 {
  %3 = alloca ptr, align 8
  %4 = alloca i64, align 8
  store ptr %0, ptr %3, align 8, !tbaa !98
  store i64 %1, ptr %4, align 8, !tbaa !103
  %5 = load i64, ptr %4, align 8, !tbaa !103
  %6 = load ptr, ptr %3, align 8, !tbaa !98
  %7 = getelementptr inbounds nuw %struct.strbuf, ptr %6, i32 0, i32 0
  %8 = load i64, ptr %7, align 8, !tbaa !104
  %9 = icmp ne i64 %8, 0
  br i1 %9, label %10, label %15

10:                                               ; preds = %2
  %11 = load ptr, ptr %3, align 8, !tbaa !98
  %12 = getelementptr inbounds nuw %struct.strbuf, ptr %11, i32 0, i32 0
  %13 = load i64, ptr %12, align 8, !tbaa !104
  %14 = sub i64 %13, 1
  br label %16

15:                                               ; preds = %2
  br label %16

16:                                               ; preds = %15, %10
  %17 = phi i64 [ %14, %10 ], [ 0, %15 ]
  %18 = icmp ugt i64 %5, %17
  br i1 %18, label %19, label %20

19:                                               ; preds = %16
  call void (ptr, i32, ptr, ...) @BUG_fl(ptr noundef @.str.122, i32 noundef 167, ptr noundef @.str.123) #15
  unreachable

20:                                               ; preds = %16
  %21 = load i64, ptr %4, align 8, !tbaa !103
  %22 = load ptr, ptr %3, align 8, !tbaa !98
  %23 = getelementptr inbounds nuw %struct.strbuf, ptr %22, i32 0, i32 1
  store i64 %21, ptr %23, align 8, !tbaa !97
  %24 = load ptr, ptr %3, align 8, !tbaa !98
  %25 = getelementptr inbounds nuw %struct.strbuf, ptr %24, i32 0, i32 2
  %26 = load ptr, ptr %25, align 8, !tbaa !57
  %27 = icmp ne ptr %26, @strbuf_slopbuf
  br i1 %27, label %28, label %34

28:                                               ; preds = %20
  %29 = load ptr, ptr %3, align 8, !tbaa !98
  %30 = getelementptr inbounds nuw %struct.strbuf, ptr %29, i32 0, i32 2
  %31 = load ptr, ptr %30, align 8, !tbaa !57
  %32 = load i64, ptr %4, align 8, !tbaa !103
  %33 = getelementptr inbounds nuw i8, ptr %31, i64 %32
  store i8 0, ptr %33, align 1, !tbaa !84
  br label %35

34:                                               ; preds = %20
  br label %35

35:                                               ; preds = %34, %28
  ret void
}

; Function Attrs: inlinehint nounwind uwtable
define internal zeroext i1 @skip_prefix(ptr noundef %0, ptr noundef %1, ptr noundef %2) #5 {
  %4 = alloca i1, align 1
  %5 = alloca ptr, align 8
  %6 = alloca ptr, align 8
  %7 = alloca ptr, align 8
  store ptr %0, ptr %5, align 8, !tbaa !11
  store ptr %1, ptr %6, align 8, !tbaa !11
  store ptr %2, ptr %7, align 8, !tbaa !8
  br label %8

8:                                                ; preds = %16, %3
  %9 = load ptr, ptr %6, align 8, !tbaa !11
  %10 = load i8, ptr %9, align 1, !tbaa !84
  %11 = icmp ne i8 %10, 0
  br i1 %11, label %15, label %12

12:                                               ; preds = %8
  %13 = load ptr, ptr %5, align 8, !tbaa !11
  %14 = load ptr, ptr %7, align 8, !tbaa !8
  store ptr %13, ptr %14, align 8, !tbaa !11
  store i1 true, ptr %4, align 1
  br label %27

15:                                               ; preds = %8
  br label %16

16:                                               ; preds = %15
  %17 = load ptr, ptr %5, align 8, !tbaa !11
  %18 = getelementptr inbounds nuw i8, ptr %17, i32 1
  store ptr %18, ptr %5, align 8, !tbaa !11
  %19 = load i8, ptr %17, align 1, !tbaa !84
  %20 = sext i8 %19 to i32
  %21 = load ptr, ptr %6, align 8, !tbaa !11
  %22 = getelementptr inbounds nuw i8, ptr %21, i32 1
  store ptr %22, ptr %6, align 8, !tbaa !11
  %23 = load i8, ptr %21, align 1, !tbaa !84
  %24 = sext i8 %23 to i32
  %25 = icmp eq i32 %20, %24
  br i1 %25, label %8, label %26, !llvm.loop !117

26:                                               ; preds = %16
  store i1 false, ptr %4, align 1
  br label %27

27:                                               ; preds = %26, %12
  %28 = load i1, ptr %4, align 1
  ret i1 %28
}

; Function Attrs: nounwind uwtable
define internal i32 @str_isspace(ptr noundef %0) #0 {
  %2 = alloca i32, align 4
  %3 = alloca ptr, align 8
  store ptr %0, ptr %3, align 8, !tbaa !11
  br label %4

4:                                                ; preds = %19, %1
  %5 = load ptr, ptr %3, align 8, !tbaa !11
  %6 = load i8, ptr %5, align 1, !tbaa !84
  %7 = icmp ne i8 %6, 0
  br i1 %7, label %8, label %22

8:                                                ; preds = %4
  %9 = load ptr, ptr %3, align 8, !tbaa !11
  %10 = load i8, ptr %9, align 1, !tbaa !84
  %11 = zext i8 %10 to i64
  %12 = getelementptr inbounds nuw [256 x i8], ptr @sane_ctype, i64 0, i64 %11
  %13 = load i8, ptr %12, align 1, !tbaa !84
  %14 = zext i8 %13 to i32
  %15 = and i32 %14, 1
  %16 = icmp ne i32 %15, 0
  br i1 %16, label %18, label %17

17:                                               ; preds = %8
  store i32 0, ptr %2, align 4
  br label %23

18:                                               ; preds = %8
  br label %19

19:                                               ; preds = %18
  %20 = load ptr, ptr %3, align 8, !tbaa !11
  %21 = getelementptr inbounds nuw i8, ptr %20, i32 1
  store ptr %21, ptr %3, align 8, !tbaa !11
  br label %4, !llvm.loop !116

22:                                               ; preds = %4
  store i32 1, ptr %2, align 4
  br label %23

23:                                               ; preds = %22, %17
  %24 = load i32, ptr %2, align 4
  ret i32 %24
}

; Function Attrs: nounwind uwtable
define internal i32 @stgit_patch_to_mail(ptr noundef %0, ptr noundef %1, i32 noundef %2) #0 {
  %4 = alloca ptr, align 8
  %5 = alloca ptr, align 8
  %6 = alloca i32, align 4
  %7 = alloca %struct.strbuf, align 8
  %8 = alloca i32, align 4
  %9 = alloca ptr, align 8
  %10 = alloca i32, align 4
  store ptr %0, ptr %4, align 8, !tbaa !29
  store ptr %1, ptr %5, align 8, !tbaa !29
  store i32 %2, ptr %6, align 4, !tbaa !4
  call void @llvm.lifetime.start.p0(i64 24, ptr %7) #14
  call void @llvm.memcpy.p0.p0.i64(ptr align 8 %7, ptr align 8 @__const.stgit_patch_to_mail.sb, i64 24, i1 false)
  call void @llvm.lifetime.start.p0(i64 4, ptr %8) #14
  store i32 0, ptr %8, align 4, !tbaa !4
  br label %11

11:                                               ; preds = %64, %62, %3
  %12 = load ptr, ptr %5, align 8, !tbaa !29
  %13 = call i32 @strbuf_getline_lf(ptr noundef %7, ptr noundef %12)
  %14 = icmp ne i32 %13, 0
  %15 = xor i1 %14, true
  br i1 %15, label %16, label %65

16:                                               ; preds = %11
  call void @llvm.lifetime.start.p0(i64 8, ptr %9) #14
  %17 = getelementptr inbounds nuw %struct.strbuf, ptr %7, i32 0, i32 2
  %18 = load ptr, ptr %17, align 8, !tbaa !57
  %19 = call i32 @str_isspace(ptr noundef %18)
  %20 = icmp ne i32 %19, 0
  br i1 %20, label %21, label %22

21:                                               ; preds = %16
  store i32 2, ptr %10, align 4
  br label %62, !llvm.loop !109

22:                                               ; preds = %16
  %23 = getelementptr inbounds nuw %struct.strbuf, ptr %7, i32 0, i32 2
  %24 = load ptr, ptr %23, align 8, !tbaa !57
  %25 = call zeroext i1 @skip_prefix(ptr noundef %24, ptr noundef @.str.148, ptr noundef %9)
  br i1 %25, label %26, label %30

26:                                               ; preds = %22
  %27 = load ptr, ptr %4, align 8, !tbaa !29
  %28 = load ptr, ptr %9, align 8, !tbaa !11
  %29 = call i32 (ptr, ptr, ...) @fprintf(ptr noundef %27, ptr noundef @.str.167, ptr noundef %28) #14
  br label %60

30:                                               ; preds = %22
  %31 = getelementptr inbounds nuw %struct.strbuf, ptr %7, i32 0, i32 2
  %32 = load ptr, ptr %31, align 8, !tbaa !57
  %33 = call i32 @starts_with(ptr noundef %32, ptr noundef @.str.168)
  %34 = icmp ne i32 %33, 0
  br i1 %34, label %40, label %35

35:                                               ; preds = %30
  %36 = getelementptr inbounds nuw %struct.strbuf, ptr %7, i32 0, i32 2
  %37 = load ptr, ptr %36, align 8, !tbaa !57
  %38 = call i32 @starts_with(ptr noundef %37, ptr noundef @.str.169)
  %39 = icmp ne i32 %38, 0
  br i1 %39, label %40, label %45

40:                                               ; preds = %35, %30
  %41 = load ptr, ptr %4, align 8, !tbaa !29
  %42 = getelementptr inbounds nuw %struct.strbuf, ptr %7, i32 0, i32 2
  %43 = load ptr, ptr %42, align 8, !tbaa !57
  %44 = call i32 (ptr, ptr, ...) @fprintf(ptr noundef %41, ptr noundef @.str.170, ptr noundef %43) #14
  br label %59

45:                                               ; preds = %35
  %46 = load i32, ptr %8, align 4, !tbaa !4
  %47 = icmp ne i32 %46, 0
  br i1 %47, label %53, label %48

48:                                               ; preds = %45
  %49 = load ptr, ptr %4, align 8, !tbaa !29
  %50 = getelementptr inbounds nuw %struct.strbuf, ptr %7, i32 0, i32 2
  %51 = load ptr, ptr %50, align 8, !tbaa !57
  %52 = call i32 (ptr, ptr, ...) @fprintf(ptr noundef %49, ptr noundef @.str.171, ptr noundef %51) #14
  store i32 1, ptr %8, align 4, !tbaa !4
  br label %58

53:                                               ; preds = %45
  %54 = load ptr, ptr %4, align 8, !tbaa !29
  %55 = getelementptr inbounds nuw %struct.strbuf, ptr %7, i32 0, i32 2
  %56 = load ptr, ptr %55, align 8, !tbaa !57
  %57 = call i32 (ptr, ptr, ...) @fprintf(ptr noundef %54, ptr noundef @.str.172, ptr noundef %56) #14
  store i32 3, ptr %10, align 4
  br label %62

58:                                               ; preds = %48
  br label %59

59:                                               ; preds = %58, %40
  br label %60

60:                                               ; preds = %59, %26
  br label %61

61:                                               ; preds = %60
  store i32 0, ptr %10, align 4
  br label %62

62:                                               ; preds = %61, %53, %21
  call void @llvm.lifetime.end.p0(i64 8, ptr %9) #14
  %63 = load i32, ptr %10, align 4
  switch i32 %63, label %78 [
    i32 0, label %64
    i32 2, label %11
    i32 3, label %65
  ]

64:                                               ; preds = %62
  br label %11, !llvm.loop !109

65:                                               ; preds = %62, %11
  call void @strbuf_setlen(ptr noundef %7, i64 noundef 0)
  br label %66

66:                                               ; preds = %70, %65
  %67 = load ptr, ptr %5, align 8, !tbaa !29
  %68 = call i64 @strbuf_fread(ptr noundef %7, i64 noundef 8192, ptr noundef %67)
  %69 = icmp ugt i64 %68, 0
  br i1 %69, label %70, label %77

70:                                               ; preds = %66
  %71 = getelementptr inbounds nuw %struct.strbuf, ptr %7, i32 0, i32 2
  %72 = load ptr, ptr %71, align 8, !tbaa !57
  %73 = getelementptr inbounds nuw %struct.strbuf, ptr %7, i32 0, i32 1
  %74 = load i64, ptr %73, align 8, !tbaa !97
  %75 = load ptr, ptr %4, align 8, !tbaa !29
  %76 = call i64 @fwrite(ptr noundef %72, i64 noundef 1, i64 noundef %74, ptr noundef %75)
  call void @strbuf_setlen(ptr noundef %7, i64 noundef 0)
  br label %66, !llvm.loop !110

77:                                               ; preds = %66
  call void @strbuf_release(ptr noundef %7)
  store i32 1, ptr %10, align 4
  call void @llvm.lifetime.end.p0(i64 4, ptr %8) #14
  call void @llvm.lifetime.end.p0(i64 24, ptr %7) #14
  ret i32 0

78:                                               ; preds = %62
  unreachable
}