; Function Attrs: nounwind uwtable
define internal noundef i32 @stgit_patch_to_mail(ptr noundef captures(none) %0, ptr noundef %1, i32 %2) #0 {
  %4 = alloca %struct.strbuf, align 8
  call void @llvm.lifetime.start.p0(i64 24, ptr nonnull %4) #21
  call void @llvm.memcpy.p0.p0.i64(ptr noundef nonnull align 8 dereferenceable(24) %4, ptr noundef nonnull align 8 dereferenceable(24) @__const.show_patch.sb, i64 24, i1 false)
  %5 = call i32 @strbuf_getline_lf(ptr noundef nonnull %4, ptr noundef %1) #21
  %.not30 = icmp eq i32 %5, 0
  br i1 %.not30, label %.lr.ph, label %.loopexit

.lr.ph:                                           ; preds = %3
  %6 = getelementptr inbounds nuw i8, ptr %4, i64 16
  br label %7

7:                                                ; preds = %.lr.ph, %str_isspace.exit.thread
  %.0831 = phi i32 [ 0, %.lr.ph ], [ %.1, %str_isspace.exit.thread ]
  %8 = load ptr, ptr %6, align 8, !tbaa !51
  %9 = load i8, ptr %8, align 1, !tbaa !47
  %.not6.i = icmp eq i8 %9, 0
  br i1 %.not6.i, label %str_isspace.exit.thread, label %.lr.ph.i

10:                                               ; preds = %.lr.ph.i
  %11 = getelementptr inbounds nuw i8, ptr %.07.i, i64 1
  %12 = load i8, ptr %11, align 1, !tbaa !47
  %.not.i = icmp eq i8 %12, 0
  br i1 %.not.i, label %str_isspace.exit.thread, label %.lr.ph.i, !llvm.loop !170

.lr.ph.i:                                         ; preds = %7, %10
  %13 = phi i8 [ %12, %10 ], [ %9, %7 ]
  %.07.i = phi ptr [ %11, %10 ], [ %8, %7 ]
  %14 = zext i8 %13 to i64
  %15 = getelementptr inbounds nuw [256 x i8], ptr @sane_ctype, i64 0, i64 %14
  %16 = load i8, ptr %15, align 1, !tbaa !47
  %17 = and i8 %16, 1
  %.not5.i = icmp eq i8 %17, 0
  br i1 %.not5.i, label %str_isspace.exit.preheader, label %10

str_isspace.exit.preheader:                       ; preds = %.lr.ph.i
  %scevgep = getelementptr i8, ptr %8, i64 7
  br label %str_isspace.exit

str_isspace.exit:                                 ; preds = %str_isspace.exit.preheader, %18
  %.07.i14 = phi ptr [ %20, %18 ], [ %8, %str_isspace.exit.preheader ]
  %.06.i.idx = phi i64 [ %.06.i.add, %18 ], [ 0, %str_isspace.exit.preheader ]
  %exitcond = icmp eq i64 %.06.i.idx, 7
  br i1 %exitcond, label %23, label %18

18:                                               ; preds = %str_isspace.exit
  %.06.i.ptr = getelementptr inbounds nuw i8, ptr @.str.148, i64 %.06.i.idx
  %19 = load i8, ptr %.06.i.ptr, align 1, !tbaa !47
  %20 = getelementptr inbounds nuw i8, ptr %.07.i14, i64 1
  %21 = load i8, ptr %.07.i14, align 1, !tbaa !47
  %.06.i.add = add nuw nsw i64 %.06.i.idx, 1
  %22 = icmp eq i8 %21, %19
  br i1 %22, label %str_isspace.exit, label %skip_prefix.exit, !llvm.loop !133

23:                                               ; preds = %str_isspace.exit
  %24 = call i32 (ptr, ptr, ...) @fprintf(ptr noundef %0, ptr noundef nonnull @.str.167, ptr noundef nonnull %scevgep) #21
  br label %str_isspace.exit.thread

skip_prefix.exit:                                 ; preds = %18
  %25 = call i32 @starts_with(ptr noundef nonnull %8, ptr noundef nonnull @.str.168) #21
  %.not10 = icmp eq i32 %25, 0
  br i1 %.not10, label %26, label %29

26:                                               ; preds = %skip_prefix.exit
  %27 = load ptr, ptr %6, align 8, !tbaa !51
  %28 = call i32 @starts_with(ptr noundef %27, ptr noundef nonnull @.str.169) #21
  %.not11 = icmp eq i32 %28, 0
  br i1 %.not11, label %32, label %29

29:                                               ; preds = %26, %skip_prefix.exit
  %30 = load ptr, ptr %6, align 8, !tbaa !51
  %31 = call i32 (ptr, ptr, ...) @fprintf(ptr noundef %0, ptr noundef nonnull @.str.170, ptr noundef %30) #21
  br label %str_isspace.exit.thread

32:                                               ; preds = %26
  %.not12 = icmp eq i32 %.0831, 0
  %33 = load ptr, ptr %6, align 8, !tbaa !51
  br i1 %.not12, label %34, label %.thread

34:                                               ; preds = %32
  %35 = call i32 (ptr, ptr, ...) @fprintf(ptr noundef %0, ptr noundef nonnull @.str.171, ptr noundef %33) #21
  br label %str_isspace.exit.thread

.thread:                                          ; preds = %32
  %36 = call i32 (ptr, ptr, ...) @fprintf(ptr noundef %0, ptr noundef nonnull @.str.172, ptr noundef %33) #21
  br label %.loopexit

str_isspace.exit.thread:                          ; preds = %10, %7, %29, %34, %23
  %.1 = phi i32 [ %.0831, %23 ], [ %.0831, %29 ], [ 1, %34 ], [ %.0831, %7 ], [ %.0831, %10 ]
  %37 = call i32 @strbuf_getline_lf(ptr noundef nonnull %4, ptr noundef %1) #21
  %.not = icmp eq i32 %37, 0
  br i1 %.not, label %7, label %.loopexit

.loopexit:                                        ; preds = %str_isspace.exit.thread, %3, %.thread
  %38 = getelementptr inbounds nuw i8, ptr %4, i64 8
  store i64 0, ptr %38, align 8, !tbaa !53
  %39 = getelementptr inbounds nuw i8, ptr %4, i64 16
  %40 = load ptr, ptr %39, align 8, !tbaa !51
  %.not9.i = icmp eq ptr %40, @strbuf_slopbuf
  br i1 %.not9.i, label %strbuf_setlen.exit, label %41

41:                                               ; preds = %.loopexit
  store i8 0, ptr %40, align 1, !tbaa !47
  br label %strbuf_setlen.exit

strbuf_setlen.exit:                               ; preds = %.loopexit, %41
  %42 = call i64 @strbuf_fread(ptr noundef nonnull %4, i64 noundef 8192, ptr noundef %1) #21
  %.not1332 = icmp eq i64 %42, 0
  br i1 %.not1332, label %._crit_edge, label %.lr.ph33

.lr.ph33:                                         ; preds = %strbuf_setlen.exit, %strbuf_setlen.exit17
  %43 = load ptr, ptr %39, align 8, !tbaa !51
  %44 = load i64, ptr %38, align 8, !tbaa !53
  %45 = call i64 @fwrite(ptr noundef %43, i64 noundef 1, i64 noundef %44, ptr noundef %0)
  store i64 0, ptr %38, align 8, !tbaa !53
  %46 = load ptr, ptr %39, align 8, !tbaa !51
  %.not9.i16 = icmp eq ptr %46, @strbuf_slopbuf
  br i1 %.not9.i16, label %strbuf_setlen.exit17, label %47

47:                                               ; preds = %.lr.ph33
  store i8 0, ptr %46, align 1, !tbaa !47
  br label %strbuf_setlen.exit17

strbuf_setlen.exit17:                             ; preds = %.lr.ph33, %47
  %48 = call i64 @strbuf_fread(ptr noundef nonnull %4, i64 noundef 8192, ptr noundef %1) #21
  %.not13 = icmp eq i64 %48, 0
  br i1 %.not13, label %._crit_edge, label %.lr.ph33, !llvm.loop !171

._crit_edge:                                      ; preds = %strbuf_setlen.exit17, %strbuf_setlen.exit
  call void @strbuf_release(ptr noundef nonnull %4) #21
  call void @llvm.lifetime.end.p0(i64 24, ptr nonnull %4) #21
  ret i32 0
}